; Function Attrs: uwtable
define void @_ZTv0_n32_N5arrow2io20BufferedOutputStream5CloseEv(ptr noalias sret(%"class.arrow::Status") align 8 %agg.result, ptr nocapture noundef readonly %this) unnamed_addr #9 align 2 {
entry:
  %0 = load ptr, ptr %this, align 8
  %1 = getelementptr inbounds i8, ptr %0, i64 -32
  %2 = load i64, ptr %1, align 8
  %3 = getelementptr inbounds i8, ptr %this, i64 %2
  %impl_.i = getelementptr inbounds i8, ptr %3, i64 8
  %4 = load ptr, ptr %impl_.i, align 8, !noalias !54
  tail call void @_ZN5arrow2io20BufferedOutputStream4Impl5CloseEv(ptr sret(%"class.arrow::Status") align 8 %agg.result, ptr noundef nonnull align 8 dereferenceable(120) %4)
  ret void
}